; Function Attrs: nounwind uwtable
define i64 @ffio_read_varlen(ptr noundef %0) local_unnamed_addr #3 {
  %2 = getelementptr inbounds nuw i8, ptr %0, i64 24
  %3 = getelementptr inbounds nuw i8, ptr %0, i64 32
  %.pre = load ptr, ptr %2, align 8, !tbaa !16
  %.pre8 = load ptr, ptr %3, align 8, !tbaa !19
  br label %4

4:                                                ; preds = %avio_r8.exit, %1
  %5 = phi ptr [ %.pre8, %1 ], [ %9, %avio_r8.exit ]
  %6 = phi ptr [ %.pre, %1 ], [ %13, %avio_r8.exit ]
  %.0 = phi i64 [ 0, %1 ], [ %18, %avio_r8.exit ]
  %.not.i = icmp ult ptr %6, %5
  br i1 %.not.i, label %8, label %7

7:                                                ; preds = %4
  tail call fastcc void @fill_buffer(ptr noundef nonnull %0)
  %.pre.i = load ptr, ptr %2, align 8, !tbaa !16
  %.pre7.i = load ptr, ptr %3, align 8, !tbaa !19
  br label %8

8:                                                ; preds = %7, %4
  %9 = phi ptr [ %.pre7.i, %7 ], [ %5, %4 ]
  %10 = phi ptr [ %.pre.i, %7 ], [ %6, %4 ]
  %11 = icmp ult ptr %10, %9
  br i1 %11, label %avio_r8.exit, label %avio_r8.exit.thread

avio_r8.exit.thread:                              ; preds = %8
  %12 = shl i64 %.0, 7
  br label %.loopexit

avio_r8.exit:                                     ; preds = %8
  %13 = getelementptr inbounds nuw i8, ptr %10, i64 1
  store ptr %13, ptr %2, align 8, !tbaa !16
  %14 = load i8, ptr %10, align 1, !tbaa !33
  %15 = shl i64 %.0, 7
  %16 = and i8 %14, 127
  %17 = zext nneg i8 %16 to i64
  %18 = or disjoint i64 %15, %17
  %.not = icmp sgt i8 %14, -1
  br i1 %.not, label %.loopexit, label %4, !llvm.loop !65

.loopexit:                                        ; preds = %avio_r8.exit, %avio_r8.exit.thread
  %19 = phi i64 [ %12, %avio_r8.exit.thread ], [ %18, %avio_r8.exit ]
  ret i64 %19
}